; Function Attrs: null_pointer_is_valid sspstrong uwtable
define internal i32 @dissect_pres_T_octet_aligned(i1 noundef zeroext %0, ptr noundef %1, i32 noundef %2, ptr noundef %3, ptr noundef %4, i32 noundef %5) #0 {
  %7 = alloca %struct._pres_ctx_oid_t, align 8
  %8 = alloca ptr, align 8
  call void @llvm.lifetime.start.p0(i64 8, ptr nonnull %8) #7
  %9 = getelementptr inbounds nuw i8, ptr %3, i64 16
  %10 = load ptr, ptr %9, align 8
  %11 = load i32, ptr @presentation_context_identifier, align 4
  call void @llvm.lifetime.start.p0(i64 24, ptr nonnull %7) #7
  store i32 %11, ptr %7, align 8
  %12 = tail call ptr @find_conversation_pinfo(ptr noundef %10, i32 noundef 0)
  %.not.i = icmp eq ptr %12, null
  br i1 %.not.i, label %16, label %13

13:                                               ; preds = %6
  %14 = getelementptr inbounds nuw i8, ptr %12, i64 24
  %15 = load i32, ptr %14, align 8
  br label %16

16:                                               ; preds = %13, %6
  %.sink.i = phi i32 [ %15, %13 ], [ 0, %6 ]
  %17 = getelementptr inbounds nuw i8, ptr %7, i64 16
  store i32 %.sink.i, ptr %17, align 8
  %18 = load ptr, ptr @pres_ctx_oid_table, align 8
  %19 = call ptr @wmem_map_lookup(ptr noundef %18, ptr noundef nonnull %7)
  %.not10.i = icmp eq ptr %19, null
  br i1 %.not10.i, label %22, label %20

20:                                               ; preds = %16
  %21 = getelementptr inbounds nuw i8, ptr %19, i64 8
  br label %find_oid_by_pres_ctx_id.exit

22:                                               ; preds = %16
  %23 = load i32, ptr @num_pres_users, align 4
  %.not16.i.i = icmp eq i32 %23, 0
  br i1 %.not16.i.i, label %find_oid_by_pres_ctx_id.exit.thread, label %.lr.ph.i.i

.lr.ph.i.i:                                       ; preds = %22
  %24 = load ptr, ptr @pres_users, align 8
  %wide.trip.count.i.i = zext i32 %23 to i64
  br label %26

25:                                               ; preds = %26
  %indvars.iv.next.i.i = add nuw nsw i64 %indvars.iv.i.i, 1
  %exitcond.not.i.i = icmp eq i64 %indvars.iv.next.i.i, %wide.trip.count.i.i
  br i1 %exitcond.not.i.i, label %find_oid_by_pres_ctx_id.exit.thread, label %26, !llvm.loop !6

26:                                               ; preds = %25, %.lr.ph.i.i
  %indvars.iv.i.i = phi i64 [ 0, %.lr.ph.i.i ], [ %indvars.iv.next.i.i, %25 ]
  %27 = getelementptr %struct._pres_user_t, ptr %24, i64 %indvars.iv.i.i
  %28 = load i32, ptr %27, align 8
  %.not.i.i = icmp eq i32 %28, %11
  br i1 %.not.i.i, label %.thread.i.i, label %25

.thread.i.i:                                      ; preds = %26
  %29 = getelementptr inbounds nuw i8, ptr %27, i64 8
  %30 = load ptr, ptr %29, align 8
  call fastcc void @register_ctx_id_and_oid(ptr noundef %10, i32 noundef %11, ptr noundef %30)
  br label %find_oid_by_pres_ctx_id.exit

find_oid_by_pres_ctx_id.exit.thread:              ; preds = %25, %22
  call void @llvm.lifetime.end.p0(i64 24, ptr nonnull %7) #7
  br label %39

find_oid_by_pres_ctx_id.exit:                     ; preds = %20, %.thread.i.i
  %.0.i.in = phi ptr [ %21, %20 ], [ %29, %.thread.i.i ]
  %.0.i = load ptr, ptr %.0.i.in, align 8
  call void @llvm.lifetime.end.p0(i64 24, ptr nonnull %7) #7
  %.not = icmp eq ptr %.0.i, null
  br i1 %.not, label %39, label %31

31:                                               ; preds = %find_oid_by_pres_ctx_id.exit
  %32 = call i32 @dissect_ber_octet_string(i1 noundef zeroext %0, ptr noundef %3, ptr noundef %4, ptr noundef %1, i32 noundef %2, i32 noundef %5, ptr noundef nonnull %8)
  %33 = load ptr, ptr %8, align 8
  %34 = load ptr, ptr %9, align 8
  %35 = load ptr, ptr @global_tree, align 8
  %36 = getelementptr inbounds nuw i8, ptr %3, i64 48
  %37 = load ptr, ptr %36, align 8
  %38 = call i32 @call_ber_oid_callback(ptr noundef nonnull %.0.i, ptr noundef %33, i32 noundef %2, ptr noundef %34, ptr noundef %35, ptr noundef %37)
  br label %43

39:                                               ; preds = %find_oid_by_pres_ctx_id.exit.thread, %find_oid_by_pres_ctx_id.exit
  %40 = load ptr, ptr %9, align 8
  %41 = call ptr @proto_tree_add_expert(ptr noundef %4, ptr noundef %40, ptr noundef nonnull @ei_pres_dissector_not_available, ptr noundef %1, i32 noundef %2, i32 noundef -1)
  %42 = call i32 @dissect_ber_octet_string(i1 noundef zeroext %0, ptr noundef %3, ptr noundef %4, ptr noundef %1, i32 noundef %2, i32 noundef %5, ptr noundef null)
  br label %43

43:                                               ; preds = %39, %31
  %.0 = phi i32 [ %2, %31 ], [ %42, %39 ]
  call void @llvm.lifetime.end.p0(i64 8, ptr nonnull %8) #7
  ret i32 %.0
}